; Function Attrs: mustprogress uwtable
define hidden noundef i64 @_ZN5arith3sls10to_numeralERK8rational(ptr nocapture noundef nonnull readnone align 8 dereferenceable(97) %this, ptr noundef nonnull align 8 dereferenceable(32) %r) local_unnamed_addr #5 align 2 {
entry:
  %m_den.i.i.i = getelementptr inbounds i8, ptr %r, i64 16
  %m_kind.i.i.i.i.i.i = getelementptr inbounds i8, ptr %r, i64 20
  %bf.load.i.i.i.i.i.i = load i8, ptr %m_kind.i.i.i.i.i.i, align 4
  %bf.clear.i.i.i.i.i.i = and i8 %bf.load.i.i.i.i.i.i, 1
  %cmp.i.i.i.i.i.i = icmp eq i8 %bf.clear.i.i.i.i.i.i, 0
  %0 = load i32, ptr %m_den.i.i.i, align 8
  %cmp.i.i.i.i.i = icmp eq i32 %0, 1
  %1 = select i1 %cmp.i.i.i.i.i.i, i1 %cmp.i.i.i.i.i, i1 false
  br i1 %1, label %_ZNK8rational8is_int64Ev.exit, label %return

_ZNK8rational8is_int64Ev.exit:                    ; preds = %entry
  %2 = load ptr, ptr @_ZN8rational13g_mpq_managerE, align 8
  %call.i.i.i = tail call noundef zeroext i1 @_ZNK11mpz_managerILb1EE8is_int64ERK3mpz(ptr noundef nonnull align 8 dereferenceable(600) %2, ptr noundef nonnull align 8 dereferenceable(16) %r)
  br i1 %call.i.i.i, label %if.then, label %return

if.then:                                          ; preds = %_ZNK8rational8is_int64Ev.exit
  %3 = load ptr, ptr @_ZN8rational13g_mpq_managerE, align 8
  %call.i.i.i2 = tail call noundef i64 @_ZNK11mpz_managerILb1EE9get_int64ERK3mpz(ptr noundef nonnull align 8 dereferenceable(600) %3, ptr noundef nonnull align 8 dereferenceable(16) %r)
  br label %return

return:                                           ; preds = %entry, %_ZNK8rational8is_int64Ev.exit, %if.then
  %retval.0 = phi i64 [ %call.i.i.i2, %if.then ], [ 0, %_ZNK8rational8is_int64Ev.exit ], [ 0, %entry ]
  ret i64 %retval.0
}